target datalayout = "e-m:e-p270:32:32-p271:32:32-p272:64:64-i64:64-i128:128-f80:128-n8:16:32:64-S128"
target triple = "x86_64-unknown-linux-gnu"

%struct.b2Vec2 = type { float, float }
%struct.b2JointUserData = type { i64 }
%struct.b2WheelJointDef = type { %struct.b2JointDef.base, %struct.b2Vec2, %struct.b2Vec2, %struct.b2Vec2, i8, float, float, i8, float, float, float, float, [4 x i8] }
%struct.b2JointDef.base = type <{ i32, [4 x i8], %struct.b2JointUserData, ptr, ptr, i8 }>
%class.b2WheelJoint = type <{ %class.b2Joint, %struct.b2Vec2, %struct.b2Vec2, %struct.b2Vec2, %struct.b2Vec2, float, float, float, float, float, float, float, float, float, float, i8, i8, [2 x i8], float, float, i32, i32, %struct.b2Vec2, %struct.b2Vec2, float, float, float, float, %struct.b2Vec2, %struct.b2Vec2, float, float, float, float, float, float, float, float, float, float, [4 x i8] }>
%class.b2Joint = type { ptr, i32, ptr, ptr, %struct.b2JointEdge, %struct.b2JointEdge, ptr, ptr, i32, i8, i8, %struct.b2JointUserData }
%struct.b2JointEdge = type { ptr, ptr, ptr, ptr }

; Function Attrs: mustprogress nounwind uwtable
define linkonce_odr hidden void @_ZN6b2Vec2C2Eff(ptr noundef nonnull align 4 dereferenceable(8) %this, float noundef %xIn, float noundef %yIn) unnamed_addr #3 comdat align 2 {
entry:
  %this.addr = alloca ptr, align 8
  %xIn.addr = alloca float, align 4
  %yIn.addr = alloca float, align 4
  store ptr %this, ptr %this.addr, align 8
  store float %xIn, ptr %xIn.addr, align 4
  store float %yIn, ptr %yIn.addr, align 4
  %this1 = load ptr, ptr %this.addr, align 8
  %x = getelementptr inbounds %struct.b2Vec2, ptr %this1, i32 0, i32 0
  %0 = load float, ptr %xIn.addr, align 4
  store float %0, ptr %x, align 4
  %y = getelementptr inbounds %struct.b2Vec2, ptr %this1, i32 0, i32 1
  %1 = load float, ptr %yIn.addr, align 4
  store float %1, ptr %y, align 4
  ret void
}

; Function Attrs: mustprogress nounwind uwtable
define linkonce_odr hidden void @_ZN7b2JointD2Ev(ptr noundef nonnull align 8 dereferenceable(128) %this) unnamed_addr #3 comdat align 2 {
entry:
  %this.addr = alloca ptr, align 8
  store ptr %this, ptr %this.addr, align 8
  ret void
}

; Function Attrs: mustprogress nounwind uwtable
define linkonce_odr hidden void @_ZN6b2Vec27SetZeroEv(ptr noundef nonnull align 4 dereferenceable(8) %this) #3 comdat align 2 {
entry:
  %this.addr = alloca ptr, align 8
  store ptr %this, ptr %this.addr, align 8
  %this1 = load ptr, ptr %this.addr, align 8
  %x = getelementptr inbounds %struct.b2Vec2, ptr %this1, i32 0, i32 0
  store float 0.000000e+00, ptr %x, align 4
  %y = getelementptr inbounds %struct.b2Vec2, ptr %this1, i32 0, i32 1
  store float 0.000000e+00, ptr %y, align 4
  ret void
}

; Function Attrs: mustprogress uwtable
define linkonce_odr hidden <2 x float> @_Z7b2CrossfRK6b2Vec2(float noundef %s, ptr noundef nonnull align 4 dereferenceable(8) %a) #0 comdat {
entry:
  %retval = alloca %struct.b2Vec2, align 4
  %s.addr = alloca float, align 4
  %a.addr = alloca ptr, align 8
  store float %s, ptr %s.addr, align 4
  store ptr %a, ptr %a.addr, align 8
  %0 = load float, ptr %s.addr, align 4
  %fneg = fneg float %0
  %1 = load ptr, ptr %a.addr, align 8
  %y = getelementptr inbounds %struct.b2Vec2, ptr %1, i32 0, i32 1
  %2 = load float, ptr %y, align 4
  %mul = fmul float %fneg, %2
  %3 = load float, ptr %s.addr, align 4
  %4 = load ptr, ptr %a.addr, align 8
  %x = getelementptr inbounds %struct.b2Vec2, ptr %4, i32 0, i32 0
  %5 = load float, ptr %x, align 4
  %mul1 = fmul float %3, %5
  call void @_ZN6b2Vec2C2Eff(ptr noundef nonnull align 4 dereferenceable(8) %retval, float noundef %mul, float noundef %mul1)
  %6 = load <2 x float>, ptr %retval, align 4
  ret <2 x float> %6
}

; Function Attrs: mustprogress uwtable
define void @_ZN12b2WheelJointC2EPK15b2WheelJointDef(ptr noundef nonnull align 8 dereferenceable(308) %this, ptr noundef %def) unnamed_addr #0 align 2 personality ptr @__gxx_personality_v0 {
entry:
  %this.addr = alloca ptr, align 8
  %def.addr = alloca ptr, align 8
  %ref.tmp = alloca %struct.b2Vec2, align 4
  %exn.slot = alloca ptr, align 8
  %ehselector.slot = alloca i32, align 4
  store ptr %this, ptr %this.addr, align 8
  store ptr %def, ptr %def.addr, align 8
  %this1 = load ptr, ptr %this.addr, align 8
  %0 = load ptr, ptr %def.addr, align 8
  call void @_ZN7b2JointC2EPK10b2JointDef(ptr noundef nonnull align 8 dereferenceable(128) %this1, ptr noundef %0)
  store ptr getelementptr inbounds ({ [14 x ptr] }, ptr @_ZTV12b2WheelJoint, i32 0, i32 0, i32 2), ptr %this1, align 8
  %1 = load ptr, ptr %def.addr, align 8
  %localAnchorA = getelementptr inbounds %struct.b2WheelJointDef, ptr %1, i32 0, i32 1
  %m_localAnchorA2 = getelementptr inbounds %class.b2WheelJoint, ptr %this1, i32 0, i32 1
  call void @llvm.memcpy.p0.p0.i64(ptr align 8 %m_localAnchorA2, ptr align 4 %localAnchorA, i64 8, i1 false)
  %2 = load ptr, ptr %def.addr, align 8
  %localAnchorB = getelementptr inbounds %struct.b2WheelJointDef, ptr %2, i32 0, i32 2
  %m_localAnchorB3 = getelementptr inbounds %class.b2WheelJoint, ptr %this1, i32 0, i32 2
  call void @llvm.memcpy.p0.p0.i64(ptr align 8 %m_localAnchorB3, ptr align 4 %localAnchorB, i64 8, i1 false)
  %3 = load ptr, ptr %def.addr, align 8
  %localAxisA = getelementptr inbounds %struct.b2WheelJointDef, ptr %3, i32 0, i32 3
  %m_localXAxisA4 = getelementptr inbounds %class.b2WheelJoint, ptr %this1, i32 0, i32 3
  call void @llvm.memcpy.p0.p0.i64(ptr align 8 %m_localXAxisA4, ptr align 4 %localAxisA, i64 8, i1 false)
  %m_localXAxisA5 = getelementptr inbounds %class.b2WheelJoint, ptr %this1, i32 0, i32 3
  %call = invoke <2 x float> @_Z7b2CrossfRK6b2Vec2(float noundef 1.000000e+00, ptr noundef nonnull align 4 dereferenceable(8) %m_localXAxisA5)
          to label %invoke.cont unwind label %lpad

invoke.cont:                                      ; preds = %entry
  store <2 x float> %call, ptr %ref.tmp, align 4
  %m_localYAxisA6 = getelementptr inbounds %class.b2WheelJoint, ptr %this1, i32 0, i32 4
  call void @llvm.memcpy.p0.p0.i64(ptr align 8 %m_localYAxisA6, ptr align 4 %ref.tmp, i64 8, i1 false)
  %m_mass = getelementptr inbounds %class.b2WheelJoint, ptr %this1, i32 0, i32 34
  store float 0.000000e+00, ptr %m_mass, align 4
  %m_impulse = getelementptr inbounds %class.b2WheelJoint, ptr %this1, i32 0, i32 5
  store float 0.000000e+00, ptr %m_impulse, align 8
  %m_motorMass = getelementptr inbounds %class.b2WheelJoint, ptr %this1, i32 0, i32 35
  store float 0.000000e+00, ptr %m_motorMass, align 8
  %m_motorImpulse = getelementptr inbounds %class.b2WheelJoint, ptr %this1, i32 0, i32 6
  store float 0.000000e+00, ptr %m_motorImpulse, align 4
  %m_springMass = getelementptr inbounds %class.b2WheelJoint, ptr %this1, i32 0, i32 37
  store float 0.000000e+00, ptr %m_springMass, align 8
  %m_springImpulse = getelementptr inbounds %class.b2WheelJoint, ptr %this1, i32 0, i32 7
  store float 0.000000e+00, ptr %m_springImpulse, align 8
  %m_axialMass = getelementptr inbounds %class.b2WheelJoint, ptr %this1, i32 0, i32 36
  store float 0.000000e+00, ptr %m_axialMass, align 4
  %m_lowerImpulse = getelementptr inbounds %class.b2WheelJoint, ptr %this1, i32 0, i32 8
  store float 0.000000e+00, ptr %m_lowerImpulse, align 4
  %m_upperImpulse = getelementptr inbounds %class.b2WheelJoint, ptr %this1, i32 0, i32 9
  store float 0.000000e+00, ptr %m_upperImpulse, align 8
  %4 = load ptr, ptr %def.addr, align 8
  %lowerTranslation = getelementptr inbounds %struct.b2WheelJointDef, ptr %4, i32 0, i32 5
  %5 = load float, ptr %lowerTranslation, align 8
  %m_lowerTranslation = getelementptr inbounds %class.b2WheelJoint, ptr %this1, i32 0, i32 11
  store float %5, ptr %m_lowerTranslation, align 8
  %6 = load ptr, ptr %def.addr, align 8
  %upperTranslation = getelementptr inbounds %struct.b2WheelJointDef, ptr %6, i32 0, i32 6
  %7 = load float, ptr %upperTranslation, align 4
  %m_upperTranslation = getelementptr inbounds %class.b2WheelJoint, ptr %this1, i32 0, i32 12
  store float %7, ptr %m_upperTranslation, align 4
  %8 = load ptr, ptr %def.addr, align 8
  %enableLimit = getelementptr inbounds %struct.b2WheelJointDef, ptr %8, i32 0, i32 4
  %9 = load i8, ptr %enableLimit, align 4
  %tobool = trunc i8 %9 to i1
  %m_enableLimit = getelementptr inbounds %class.b2WheelJoint, ptr %this1, i32 0, i32 15
  %frombool = zext i1 %tobool to i8
  store i8 %frombool, ptr %m_enableLimit, align 8
  %10 = load ptr, ptr %def.addr, align 8
  %maxMotorTorque = getelementptr inbounds %struct.b2WheelJointDef, ptr %10, i32 0, i32 8
  %11 = load float, ptr %maxMotorTorque, align 4
  %m_maxMotorTorque = getelementptr inbounds %class.b2WheelJoint, ptr %this1, i32 0, i32 13
  store float %11, ptr %m_maxMotorTorque, align 8
  %12 = load ptr, ptr %def.addr, align 8
  %motorSpeed = getelementptr inbounds %struct.b2WheelJointDef, ptr %12, i32 0, i32 9
  %13 = load float, ptr %motorSpeed, align 8
  %m_motorSpeed = getelementptr inbounds %class.b2WheelJoint, ptr %this1, i32 0, i32 14
  store float %13, ptr %m_motorSpeed, align 4
  %14 = load ptr, ptr %def.addr, align 8
  %enableMotor = getelementptr inbounds %struct.b2WheelJointDef, ptr %14, i32 0, i32 7
  %15 = load i8, ptr %enableMotor, align 8
  %tobool7 = trunc i8 %15 to i1
  %m_enableMotor = getelementptr inbounds %class.b2WheelJoint, ptr %this1, i32 0, i32 16
  %frombool8 = zext i1 %tobool7 to i8
  store i8 %frombool8, ptr %m_enableMotor, align 1
  %m_bias = getelementptr inbounds %class.b2WheelJoint, ptr %this1, i32 0, i32 38
  store float 0.000000e+00, ptr %m_bias, align 4
  %m_gamma = getelementptr inbounds %class.b2WheelJoint, ptr %this1, i32 0, i32 39
  store float 0.000000e+00, ptr %m_gamma, align 8
  %m_ax9 = getelementptr inbounds %class.b2WheelJoint, ptr %this1, i32 0, i32 28
  invoke void @_ZN6b2Vec27SetZeroEv(ptr noundef nonnull align 4 dereferenceable(8) %m_ax9)
          to label %invoke.cont10 unwind label %lpad

invoke.cont10:                                    ; preds = %invoke.cont
  %m_ay11 = getelementptr inbounds %class.b2WheelJoint, ptr %this1, i32 0, i32 29
  invoke void @_ZN6b2Vec27SetZeroEv(ptr noundef nonnull align 4 dereferenceable(8) %m_ay11)
          to label %invoke.cont12 unwind label %lpad

invoke.cont12:                                    ; preds = %invoke.cont10
  %16 = load ptr, ptr %def.addr, align 8
  %stiffness = getelementptr inbounds %struct.b2WheelJointDef, ptr %16, i32 0, i32 10
  %17 = load float, ptr %stiffness, align 4
  %m_stiffness = getelementptr inbounds %class.b2WheelJoint, ptr %this1, i32 0, i32 18
  store float %17, ptr %m_stiffness, align 4
  %18 = load ptr, ptr %def.addr, align 8
  %damping = getelementptr inbounds %struct.b2WheelJointDef, ptr %18, i32 0, i32 11
  %19 = load float, ptr %damping, align 8
  %m_damping = getelementptr inbounds %class.b2WheelJoint, ptr %this1, i32 0, i32 19
  store float %19, ptr %m_damping, align 8
  ret void

lpad:                                             ; preds = %invoke.cont10, %invoke.cont, %entry
  %20 = landingpad { ptr, i32 }
          cleanup
  %21 = extractvalue { ptr, i32 } %20, 0
  store ptr %21, ptr %exn.slot, align 8
  %22 = extractvalue { ptr, i32 } %20, 1
  store i32 %22, ptr %ehselector.slot, align 4
  call void @_ZN7b2JointD2Ev(ptr noundef nonnull align 8 dereferenceable(128) %this1) #8
  br label %eh.resume

eh.resume:                                        ; preds = %lpad
  %exn = load ptr, ptr %exn.slot, align 8
  %sel = load i32, ptr %ehselector.slot, align 4
  %lpad.val = insertvalue { ptr, i32 } poison, ptr %exn, 0
  %lpad.val13 = insertvalue { ptr, i32 } %lpad.val, i32 %sel, 1
  resume { ptr, i32 } %lpad.val13
}