; Function Attrs: mustprogress uwtable
define void @_ZN12b2WheelJointC2EPK15b2WheelJointDef(ptr noundef nonnull align 8 dereferenceable(308) %this, ptr noundef %def) unnamed_addr #1 align 2 personality ptr @__gxx_personality_v0 {
invoke.cont:
  tail call void @_ZN7b2JointC2EPK10b2JointDef(ptr noundef nonnull align 8 dereferenceable(128) %this, ptr noundef %def)
  store ptr getelementptr inbounds ({ [14 x ptr] }, ptr @_ZTV12b2WheelJoint, i64 0, i32 0, i64 2), ptr %this, align 8
  %localAnchorA = getelementptr inbounds i8, ptr %def, i64 36
  %m_localAnchorA2 = getelementptr inbounds i8, ptr %this, i64 128
  %0 = load i64, ptr %localAnchorA, align 4
  store i64 %0, ptr %m_localAnchorA2, align 8
  %localAnchorB = getelementptr inbounds i8, ptr %def, i64 44
  %m_localAnchorB3 = getelementptr inbounds i8, ptr %this, i64 136
  %1 = load i64, ptr %localAnchorB, align 4
  store i64 %1, ptr %m_localAnchorB3, align 8
  %localAxisA = getelementptr inbounds i8, ptr %def, i64 52
  %m_localXAxisA4 = getelementptr inbounds i8, ptr %this, i64 144
  %2 = load i64, ptr %localAxisA, align 4
  store i64 %2, ptr %m_localXAxisA4, align 8
  %3 = lshr i64 %2, 32
  %4 = trunc i64 %3 to i32
  %5 = bitcast i32 %4 to float
  %mul.i = fneg float %5
  %6 = trunc i64 %2 to i32
  %7 = bitcast i32 %6 to float
  %retval.sroa.0.0.vec.insert.i = insertelement <2 x float> poison, float %mul.i, i64 0
  %retval.sroa.0.4.vec.insert.i = insertelement <2 x float> %retval.sroa.0.0.vec.insert.i, float %7, i64 1
  %m_localYAxisA6 = getelementptr inbounds i8, ptr %this, i64 152
  store <2 x float> %retval.sroa.0.4.vec.insert.i, ptr %m_localYAxisA6, align 8
  %m_mass = getelementptr inbounds i8, ptr %this, i64 284
  %m_impulse = getelementptr inbounds i8, ptr %this, i64 160
  %lowerTranslation = getelementptr inbounds i8, ptr %def, i64 64
  tail call void @llvm.memset.p0.i64(ptr noundef nonnull align 8 dereferenceable(20) %m_impulse, i8 0, i64 20, i1 false)
  tail call void @llvm.memset.p0.i64(ptr noundef nonnull align 4 dereferenceable(16) %m_mass, i8 0, i64 16, i1 false)
  %8 = load float, ptr %lowerTranslation, align 8
  %m_lowerTranslation = getelementptr inbounds i8, ptr %this, i64 184
  store float %8, ptr %m_lowerTranslation, align 8
  %upperTranslation = getelementptr inbounds i8, ptr %def, i64 68
  %9 = load float, ptr %upperTranslation, align 4
  %m_upperTranslation = getelementptr inbounds i8, ptr %this, i64 188
  store float %9, ptr %m_upperTranslation, align 4
  %enableLimit = getelementptr inbounds i8, ptr %def, i64 60
  %10 = load i8, ptr %enableLimit, align 4
  %11 = and i8 %10, 1
  %m_enableLimit = getelementptr inbounds i8, ptr %this, i64 200
  store i8 %11, ptr %m_enableLimit, align 8
  %maxMotorTorque = getelementptr inbounds i8, ptr %def, i64 76
  %12 = load float, ptr %maxMotorTorque, align 4
  %m_maxMotorTorque = getelementptr inbounds i8, ptr %this, i64 192
  store float %12, ptr %m_maxMotorTorque, align 8
  %motorSpeed = getelementptr inbounds i8, ptr %def, i64 80
  %13 = load float, ptr %motorSpeed, align 8
  %m_motorSpeed = getelementptr inbounds i8, ptr %this, i64 196
  store float %13, ptr %m_motorSpeed, align 4
  %enableMotor = getelementptr inbounds i8, ptr %def, i64 72
  %14 = load i8, ptr %enableMotor, align 8
  %15 = and i8 %14, 1
  %m_enableMotor = getelementptr inbounds i8, ptr %this, i64 201
  store i8 %15, ptr %m_enableMotor, align 1
  %m_bias = getelementptr inbounds i8, ptr %this, i64 300
  store <2 x float> zeroinitializer, ptr %m_bias, align 4
  %m_ax9 = getelementptr inbounds i8, ptr %this, i64 252
  %stiffness = getelementptr inbounds i8, ptr %def, i64 84
  tail call void @llvm.memset.p0.i64(ptr noundef nonnull align 4 dereferenceable(16) %m_ax9, i8 0, i64 16, i1 false)
  %16 = load float, ptr %stiffness, align 4
  %m_stiffness = getelementptr inbounds i8, ptr %this, i64 204
  store float %16, ptr %m_stiffness, align 4
  %damping = getelementptr inbounds i8, ptr %def, i64 88
  %17 = load float, ptr %damping, align 8
  %m_damping = getelementptr inbounds i8, ptr %this, i64 208
  store float %17, ptr %m_damping, align 8
  ret void
}